target datalayout = "e-m:e-p270:32:32-p271:32:32-p272:64:64-i64:64-i128:128-f80:128-n8:16:32:64-S128"
target triple = "x86_64-pc-linux-gnu"

%struct.ssl_st = type { i32, i16, i16, ptr, ptr, ptr, ptr, ptr, i32, i32, ptr, ptr, i32, i32, ptr, ptr, ptr, ptr, ptr, ptr, ptr, ptr, i32, i32, [32 x i8], ptr, ptr, ptr, ptr, ptr, ptr, ptr, i64, %struct.crypto_ex_data_st, ptr, i32, i32, i32, i32, i16, ptr, i32, i64, ptr, ptr, ptr, ptr, ptr, ptr, i32, i32, ptr, ptr, i8, i8, i32 }
%struct.crypto_ex_data_st = type { ptr }
%struct.buf_mem_st = type { i64, ptr, i64 }
%struct.ssl_protocol_method_st = type { i8, ptr, ptr, ptr, ptr, ptr, ptr, ptr, ptr, ptr, ptr, ptr, i32, ptr, ptr }
%struct.ssl3_state_st = type { [8 x i8], [8 x i8], [32 x i8], [32 x i8], i8, i8, %struct.ssl3_buffer_st, %struct.ssl3_buffer_st, %struct.ssl3_record_st, i8, i32, i32, i32, i32, ptr, ptr, %struct.env_md_ctx_st, %struct.env_md_ctx_st, i8, i32, [2 x i8], i32, i8, i8, ptr, ptr, ptr, %struct.anon, [64 x i8], i8, [64 x i8], i8, i32, i32, ptr, i64, ptr, i64, i8, [64 x i8] }
%struct.ssl3_buffer_st = type { ptr, i16, i16, i16 }
%struct.ssl3_record_st = type { i8, i16, ptr }
%struct.env_md_ctx_st = type { ptr, ptr, ptr, ptr }
%struct.anon = type { [64 x i8], i32, [64 x i8], i32, i64, i32, ptr, i32, i32, %union.anon, %union.anon.0, i8, i32, ptr, ptr, i64, ptr, i8, i8, i8, i8, i32, i8, ptr, i64, i8, ptr, i8, i8, i8, %struct.ssl_ecdh_ctx_st, ptr, i16 }
%union.anon = type { i32 }
%union.anon.0 = type { i16 }
%struct.ssl_ecdh_ctx_st = type { ptr, ptr }
%struct.ssl3_enc_method = type { ptr, ptr, ptr }

@.str = private unnamed_addr constant [117 x i8] c"generated/home/dtcxzyw/WorkSpace/Projects/compilers/llvm-opt-benchmark/bench/libquic/libquic/boringssl/ssl/s3_both.c\00", align 1

; Function Attrs: nounwind uwtable
define hidden i32 @ssl3_hash_current_message(ptr noundef %0) #0 {
  %2 = alloca ptr, align 8
  %3 = alloca i64, align 8
  store ptr %0, ptr %2, align 8, !tbaa !6
  call void @llvm.lifetime.start.p0(i64 8, ptr %3) #6
  %4 = load ptr, ptr %2, align 8, !tbaa !6
  %5 = getelementptr inbounds nuw %struct.ssl_st, ptr %4, i32 0, i32 11
  %6 = load ptr, ptr %5, align 8, !tbaa !79
  %7 = load ptr, ptr %2, align 8, !tbaa !6
  %8 = getelementptr inbounds nuw %struct.ssl_st, ptr %7, i32 0, i32 10
  %9 = load ptr, ptr %8, align 8, !tbaa !13
  %10 = getelementptr inbounds nuw %struct.buf_mem_st, ptr %9, i32 0, i32 1
  %11 = load ptr, ptr %10, align 8, !tbaa !38
  %12 = ptrtoint ptr %6 to i64
  %13 = ptrtoint ptr %11 to i64
  %14 = sub i64 %12, %13
  store i64 %14, ptr %3, align 8, !tbaa !78
  %15 = load ptr, ptr %2, align 8, !tbaa !6
  %16 = load ptr, ptr %2, align 8, !tbaa !6
  %17 = getelementptr inbounds nuw %struct.ssl_st, ptr %16, i32 0, i32 10
  %18 = load ptr, ptr %17, align 8, !tbaa !13
  %19 = getelementptr inbounds nuw %struct.buf_mem_st, ptr %18, i32 0, i32 1
  %20 = load ptr, ptr %19, align 8, !tbaa !38
  %21 = load ptr, ptr %2, align 8, !tbaa !6
  %22 = getelementptr inbounds nuw %struct.ssl_st, ptr %21, i32 0, i32 12
  %23 = load i32, ptr %22, align 8, !tbaa !41
  %24 = sext i32 %23 to i64
  %25 = load i64, ptr %3, align 8, !tbaa !78
  %26 = add i64 %24, %25
  %27 = call i32 @ssl3_update_handshake_hash(ptr noundef %15, ptr noundef %20, i64 noundef %26)
  call void @llvm.lifetime.end.p0(i64 8, ptr %3) #6
  ret i32 %27
}

; Function Attrs: nounwind uwtable
define internal void @ssl3_take_mac(ptr noundef %0) #0 {
  %2 = alloca ptr, align 8
  store ptr %0, ptr %2, align 8, !tbaa !6
  %3 = load ptr, ptr %2, align 8, !tbaa !6
  %4 = getelementptr inbounds nuw %struct.ssl_st, ptr %3, i32 0, i32 14
  %5 = load ptr, ptr %4, align 8, !tbaa !50
  %6 = getelementptr inbounds nuw %struct.ssl3_state_st, ptr %5, i32 0, i32 27
  %7 = getelementptr inbounds nuw %struct.anon, ptr %6, i32 0, i32 6
  %8 = load ptr, ptr %7, align 8, !tbaa !81
  %9 = icmp eq ptr %8, null
  br i1 %9, label %10, label %11

10:                                               ; preds = %1
  br label %41

11:                                               ; preds = %1
  %12 = load ptr, ptr %2, align 8, !tbaa !6
  %13 = getelementptr inbounds nuw %struct.ssl_st, ptr %12, i32 0, i32 14
  %14 = load ptr, ptr %13, align 8, !tbaa !50
  %15 = getelementptr inbounds nuw %struct.ssl3_state_st, ptr %14, i32 0, i32 26
  %16 = load ptr, ptr %15, align 8, !tbaa !51
  %17 = getelementptr inbounds nuw %struct.ssl3_enc_method, ptr %16, i32 0, i32 1
  %18 = load ptr, ptr %17, align 8, !tbaa !65
  %19 = load ptr, ptr %2, align 8, !tbaa !6
  %20 = load ptr, ptr %2, align 8, !tbaa !6
  %21 = getelementptr inbounds nuw %struct.ssl_st, ptr %20, i32 0, i32 54
  %22 = load i8, ptr %21, align 1
  %23 = lshr i8 %22, 1
  %24 = and i8 %23, 1
  %25 = zext i8 %24 to i32
  %26 = icmp ne i32 %25, 0
  %27 = xor i1 %26, true
  %28 = zext i1 %27 to i32
  %29 = load ptr, ptr %2, align 8, !tbaa !6
  %30 = getelementptr inbounds nuw %struct.ssl_st, ptr %29, i32 0, i32 14
  %31 = load ptr, ptr %30, align 8, !tbaa !50
  %32 = getelementptr inbounds nuw %struct.ssl3_state_st, ptr %31, i32 0, i32 27
  %33 = getelementptr inbounds nuw %struct.anon, ptr %32, i32 0, i32 2
  %34 = getelementptr inbounds [64 x i8], ptr %33, i64 0, i64 0
  %35 = call i32 %18(ptr noundef %19, i32 noundef %28, ptr noundef %34)
  %36 = load ptr, ptr %2, align 8, !tbaa !6
  %37 = getelementptr inbounds nuw %struct.ssl_st, ptr %36, i32 0, i32 14
  %38 = load ptr, ptr %37, align 8, !tbaa !50
  %39 = getelementptr inbounds nuw %struct.ssl3_state_st, ptr %38, i32 0, i32 27
  %40 = getelementptr inbounds nuw %struct.anon, ptr %39, i32 0, i32 3
  store i32 %35, ptr %40, align 4, !tbaa !80
  br label %41

41:                                               ; preds = %11, %10
  ret void
}

; Function Attrs: nounwind uwtable
define hidden i32 @ssl3_get_finished(ptr noundef %0, i32 noundef %1, i32 noundef %2) #0 {
  %4 = alloca i32, align 4
  %5 = alloca ptr, align 8
  %6 = alloca i32, align 4
  %7 = alloca i32, align 4
  %8 = alloca i32, align 4
  %9 = alloca i32, align 4
  %10 = alloca i32, align 4
  %11 = alloca i64, align 8
  %12 = alloca ptr, align 8
  %13 = alloca i32, align 4
  %14 = alloca i32, align 4
  store ptr %0, ptr %5, align 8, !tbaa !6
  store i32 %1, ptr %6, align 4, !tbaa !11
  store i32 %2, ptr %7, align 4, !tbaa !11
  call void @llvm.lifetime.start.p0(i64 4, ptr %8) #6
  call void @llvm.lifetime.start.p0(i64 4, ptr %9) #6
  call void @llvm.lifetime.start.p0(i64 4, ptr %10) #6
  call void @llvm.lifetime.start.p0(i64 8, ptr %11) #6
  call void @llvm.lifetime.start.p0(i64 8, ptr %12) #6
  %15 = load ptr, ptr %5, align 8, !tbaa !6
  %16 = getelementptr inbounds nuw %struct.ssl_st, ptr %15, i32 0, i32 3
  %17 = load ptr, ptr %16, align 8, !tbaa !46
  %18 = getelementptr inbounds nuw %struct.ssl_protocol_method_st, ptr %17, i32 0, i32 5
  %19 = load ptr, ptr %18, align 8, !tbaa !77
  %20 = load ptr, ptr %5, align 8, !tbaa !6
  %21 = load i32, ptr %6, align 4, !tbaa !11
  %22 = load i32, ptr %7, align 4, !tbaa !11
  %23 = call i64 %19(ptr noundef %20, i32 noundef %21, i32 noundef %22, i32 noundef 20, i64 noundef 64, i32 noundef 0, ptr noundef %10)
  store i64 %23, ptr %11, align 8, !tbaa !78
  %24 = load i32, ptr %10, align 4, !tbaa !11
  %25 = icmp ne i32 %24, 0
  br i1 %25, label %29, label %26

26:                                               ; preds = %3
  %27 = load i64, ptr %11, align 8, !tbaa !78
  %28 = trunc i64 %27 to i32
  store i32 %28, ptr %4, align 4
  store i32 1, ptr %13, align 4
  br label %118

29:                                               ; preds = %3
  %30 = load ptr, ptr %5, align 8, !tbaa !6
  call void @ssl3_take_mac(ptr noundef %30)
  %31 = load ptr, ptr %5, align 8, !tbaa !6
  %32 = call i32 @ssl3_hash_current_message(ptr noundef %31)
  %33 = icmp ne i32 %32, 0
  br i1 %33, label %35, label %34

34:                                               ; preds = %29
  br label %117

35:                                               ; preds = %29
  %36 = load ptr, ptr %5, align 8, !tbaa !6
  %37 = getelementptr inbounds nuw %struct.ssl_st, ptr %36, i32 0, i32 11
  %38 = load ptr, ptr %37, align 8, !tbaa !79
  store ptr %38, ptr %12, align 8, !tbaa !49
  %39 = load ptr, ptr %5, align 8, !tbaa !6
  %40 = getelementptr inbounds nuw %struct.ssl_st, ptr %39, i32 0, i32 14
  %41 = load ptr, ptr %40, align 8, !tbaa !50
  %42 = getelementptr inbounds nuw %struct.ssl3_state_st, ptr %41, i32 0, i32 27
  %43 = getelementptr inbounds nuw %struct.anon, ptr %42, i32 0, i32 3
  %44 = load i32, ptr %43, align 4, !tbaa !80
  store i32 %44, ptr %9, align 4, !tbaa !11
  %45 = load i32, ptr %9, align 4, !tbaa !11
  %46 = sext i32 %45 to i64
  %47 = load i64, ptr %11, align 8, !tbaa !78
  %48 = icmp ne i64 %46, %47
  br i1 %48, label %49, label %50

49:                                               ; preds = %35
  store i32 50, ptr %8, align 4, !tbaa !11
  call void @ERR_put_error(i32 noundef 16, i32 noundef 0, i32 noundef 106, ptr noundef @.str, i32 noundef 237)
  br label %113

50:                                               ; preds = %35
  %51 = load ptr, ptr %12, align 8, !tbaa !49
  %52 = load ptr, ptr %5, align 8, !tbaa !6
  %53 = getelementptr inbounds nuw %struct.ssl_st, ptr %52, i32 0, i32 14
  %54 = load ptr, ptr %53, align 8, !tbaa !50
  %55 = getelementptr inbounds nuw %struct.ssl3_state_st, ptr %54, i32 0, i32 27
  %56 = getelementptr inbounds nuw %struct.anon, ptr %55, i32 0, i32 2
  %57 = getelementptr inbounds [64 x i8], ptr %56, i64 0, i64 0
  %58 = load i32, ptr %9, align 4, !tbaa !11
  %59 = sext i32 %58 to i64
  %60 = call i32 @CRYPTO_memcmp(ptr noundef %51, ptr noundef %57, i64 noundef %59)
  store i32 %60, ptr %14, align 4, !tbaa !11
  %61 = load i32, ptr %14, align 4, !tbaa !11
  %62 = icmp ne i32 %61, 0
  br i1 %62, label %63, label %64

63:                                               ; preds = %50
  store i32 51, ptr %8, align 4, !tbaa !11
  call void @ERR_put_error(i32 noundef 16, i32 noundef 0, i32 noundef 142, ptr noundef @.str, i32 noundef 248)
  br label %113

64:                                               ; preds = %50
  %65 = load ptr, ptr %5, align 8, !tbaa !6
  %66 = getelementptr inbounds nuw %struct.ssl_st, ptr %65, i32 0, i32 54
  %67 = load i8, ptr %66, align 1
  %68 = lshr i8 %67, 1
  %69 = and i8 %68, 1
  %70 = zext i8 %69 to i32
  %71 = icmp ne i32 %70, 0
  br i1 %71, label %72, label %92

72:                                               ; preds = %64
  %73 = load ptr, ptr %5, align 8, !tbaa !6
  %74 = getelementptr inbounds nuw %struct.ssl_st, ptr %73, i32 0, i32 14
  %75 = load ptr, ptr %74, align 8, !tbaa !50
  %76 = getelementptr inbounds nuw %struct.ssl3_state_st, ptr %75, i32 0, i32 28
  %77 = getelementptr inbounds [64 x i8], ptr %76, i64 0, i64 0
  %78 = load ptr, ptr %5, align 8, !tbaa !6
  %79 = getelementptr inbounds nuw %struct.ssl_st, ptr %78, i32 0, i32 14
  %80 = load ptr, ptr %79, align 8, !tbaa !50
  %81 = getelementptr inbounds nuw %struct.ssl3_state_st, ptr %80, i32 0, i32 27
  %82 = getelementptr inbounds nuw %struct.anon, ptr %81, i32 0, i32 2
  %83 = getelementptr inbounds [64 x i8], ptr %82, i64 0, i64 0
  %84 = load i32, ptr %9, align 4, !tbaa !11
  %85 = sext i32 %84 to i64
  call void @llvm.memcpy.p0.p0.i64(ptr align 8 %77, ptr align 4 %83, i64 %85, i1 false)
  %86 = load i32, ptr %9, align 4, !tbaa !11
  %87 = trunc i32 %86 to i8
  %88 = load ptr, ptr %5, align 8, !tbaa !6
  %89 = getelementptr inbounds nuw %struct.ssl_st, ptr %88, i32 0, i32 14
  %90 = load ptr, ptr %89, align 8, !tbaa !50
  %91 = getelementptr inbounds nuw %struct.ssl3_state_st, ptr %90, i32 0, i32 29
  store i8 %87, ptr %91, align 8, !tbaa !74
  br label %112

92:                                               ; preds = %64
  %93 = load ptr, ptr %5, align 8, !tbaa !6
  %94 = getelementptr inbounds nuw %struct.ssl_st, ptr %93, i32 0, i32 14
  %95 = load ptr, ptr %94, align 8, !tbaa !50
  %96 = getelementptr inbounds nuw %struct.ssl3_state_st, ptr %95, i32 0, i32 30
  %97 = getelementptr inbounds [64 x i8], ptr %96, i64 0, i64 0
  %98 = load ptr, ptr %5, align 8, !tbaa !6
  %99 = getelementptr inbounds nuw %struct.ssl_st, ptr %98, i32 0, i32 14
  %100 = load ptr, ptr %99, align 8, !tbaa !50
  %101 = getelementptr inbounds nuw %struct.ssl3_state_st, ptr %100, i32 0, i32 27
  %102 = getelementptr inbounds nuw %struct.anon, ptr %101, i32 0, i32 2
  %103 = getelementptr inbounds [64 x i8], ptr %102, i64 0, i64 0
  %104 = load i32, ptr %9, align 4, !tbaa !11
  %105 = sext i32 %104 to i64
  call void @llvm.memcpy.p0.p0.i64(ptr align 1 %97, ptr align 4 %103, i64 %105, i1 false)
  %106 = load i32, ptr %9, align 4, !tbaa !11
  %107 = trunc i32 %106 to i8
  %108 = load ptr, ptr %5, align 8, !tbaa !6
  %109 = getelementptr inbounds nuw %struct.ssl_st, ptr %108, i32 0, i32 14
  %110 = load ptr, ptr %109, align 8, !tbaa !50
  %111 = getelementptr inbounds nuw %struct.ssl3_state_st, ptr %110, i32 0, i32 31
  store i8 %107, ptr %111, align 1, !tbaa !73
  br label %112

112:                                              ; preds = %92, %72
  store i32 1, ptr %4, align 4
  store i32 1, ptr %13, align 4
  br label %118

113:                                              ; preds = %63, %49
  %114 = load ptr, ptr %5, align 8, !tbaa !6
  %115 = load i32, ptr %8, align 4, !tbaa !11
  %116 = call i32 @ssl3_send_alert(ptr noundef %114, i32 noundef 2, i32 noundef %115)
  br label %117

117:                                              ; preds = %113, %34
  store i32 0, ptr %4, align 4
  store i32 1, ptr %13, align 4
  br label %118

118:                                              ; preds = %117, %112, %26
  call void @llvm.lifetime.end.p0(i64 8, ptr %12) #6
  call void @llvm.lifetime.end.p0(i64 8, ptr %11) #6
  call void @llvm.lifetime.end.p0(i64 4, ptr %10) #6
  call void @llvm.lifetime.end.p0(i64 4, ptr %9) #6
  call void @llvm.lifetime.end.p0(i64 4, ptr %8) #6
  %119 = load i32, ptr %4, align 4
  ret i32 %119
}