; Function Attrs: nounwind uwtable
define hidden i32 @ssl3_get_finished(ptr noundef %0, i32 noundef %1, i32 noundef %2) local_unnamed_addr #0 {
  %4 = alloca i32, align 4
  call void @llvm.lifetime.start.p0(i64 4, ptr nonnull %4) #7
  %5 = getelementptr inbounds nuw i8, ptr %0, i64 8
  %6 = load ptr, ptr %5, align 8, !tbaa !43
  %7 = getelementptr inbounds nuw i8, ptr %6, i64 40
  %8 = load ptr, ptr %7, align 8, !tbaa !73
  %9 = call i64 %8(ptr noundef %0, i32 noundef %1, i32 noundef %2, i32 noundef 20, i64 noundef 64, i32 noundef 0, ptr noundef nonnull %4) #7
  %10 = load i32, ptr %4, align 4, !tbaa !74
  %.not = icmp eq i32 %10, 0
  br i1 %.not, label %11, label %13

11:                                               ; preds = %3
  %12 = trunc i64 %9 to i32
  br label %74

13:                                               ; preds = %3
  %14 = getelementptr inbounds nuw i8, ptr %0, i64 80
  %15 = load ptr, ptr %14, align 8, !tbaa !46
  %16 = getelementptr inbounds nuw i8, ptr %15, i64 440
  %17 = load ptr, ptr %16, align 8, !tbaa !75
  %18 = icmp eq ptr %17, null
  br i1 %18, label %ssl3_take_mac.exit, label %19

19:                                               ; preds = %13
  %20 = getelementptr inbounds nuw i8, ptr %15, i64 280
  %21 = load ptr, ptr %20, align 8, !tbaa !47
  %22 = getelementptr inbounds nuw i8, ptr %21, i64 8
  %23 = load ptr, ptr %22, align 8, !tbaa !61
  %24 = getelementptr inbounds nuw i8, ptr %0, i64 385
  %25 = load i8, ptr %24, align 1
  %26 = and i8 %25, 2
  %.not.i = icmp eq i8 %26, 0
  %27 = zext i1 %.not.i to i32
  %28 = getelementptr inbounds nuw i8, ptr %15, i64 356
  %29 = call i32 %23(ptr noundef nonnull %0, i32 noundef %27, ptr noundef nonnull %28) #7
  %30 = load ptr, ptr %14, align 8, !tbaa !46
  %31 = getelementptr inbounds nuw i8, ptr %30, i64 420
  store i32 %29, ptr %31, align 4, !tbaa !76
  br label %ssl3_take_mac.exit

ssl3_take_mac.exit:                               ; preds = %13, %19
  %32 = getelementptr inbounds nuw i8, ptr %0, i64 64
  %33 = load ptr, ptr %32, align 8, !tbaa !77
  %34 = getelementptr inbounds nuw i8, ptr %0, i64 56
  %35 = load ptr, ptr %34, align 8, !tbaa !6
  %36 = getelementptr inbounds nuw i8, ptr %35, i64 8
  %37 = load ptr, ptr %36, align 8, !tbaa !35
  %38 = ptrtoint ptr %33 to i64
  %39 = ptrtoint ptr %37 to i64
  %40 = sub i64 %38, %39
  %41 = getelementptr inbounds nuw i8, ptr %0, i64 72
  %42 = load i32, ptr %41, align 8, !tbaa !38
  %43 = sext i32 %42 to i64
  %44 = add i64 %40, %43
  %45 = call i32 @ssl3_update_handshake_hash(ptr noundef nonnull %0, ptr noundef %37, i64 noundef %44) #7
  %.not30 = icmp eq i32 %45, 0
  br i1 %.not30, label %74, label %46

46:                                               ; preds = %ssl3_take_mac.exit
  %47 = load ptr, ptr %14, align 8, !tbaa !46
  %48 = getelementptr inbounds nuw i8, ptr %47, i64 420
  %49 = load i32, ptr %48, align 4, !tbaa !76
  %50 = sext i32 %49 to i64
  %.not31 = icmp eq i64 %9, %50
  br i1 %.not31, label %52, label %51

51:                                               ; preds = %46
  call void @ERR_put_error(i32 noundef 16, i32 noundef 0, i32 noundef 106, ptr noundef nonnull @.str, i32 noundef 237) #7
  br label %72

52:                                               ; preds = %46
  %53 = load ptr, ptr %32, align 8, !tbaa !77
  %54 = getelementptr inbounds nuw i8, ptr %47, i64 356
  %55 = call i32 @CRYPTO_memcmp(ptr noundef %53, ptr noundef nonnull %54, i64 noundef %9) #7
  %.not32 = icmp eq i32 %55, 0
  br i1 %.not32, label %57, label %56

56:                                               ; preds = %52
  call void @ERR_put_error(i32 noundef 16, i32 noundef 0, i32 noundef 142, ptr noundef nonnull @.str, i32 noundef 248) #7
  br label %72

57:                                               ; preds = %52
  %58 = getelementptr inbounds nuw i8, ptr %0, i64 385
  %59 = load i8, ptr %58, align 1
  %60 = and i8 %59, 2
  %.not33 = icmp eq i8 %60, 0
  %61 = load ptr, ptr %14, align 8, !tbaa !46
  %62 = getelementptr inbounds nuw i8, ptr %61, i64 356
  %63 = trunc i32 %49 to i8
  br i1 %.not33, label %68, label %64

64:                                               ; preds = %57
  %65 = getelementptr inbounds nuw i8, ptr %61, i64 592
  call void @llvm.memcpy.p0.p0.i64(ptr nonnull align 8 %65, ptr nonnull align 4 %62, i64 %9, i1 false)
  %66 = load ptr, ptr %14, align 8, !tbaa !46
  %67 = getelementptr inbounds nuw i8, ptr %66, i64 656
  store i8 %63, ptr %67, align 8, !tbaa !70
  br label %74

68:                                               ; preds = %57
  %69 = getelementptr inbounds nuw i8, ptr %61, i64 657
  call void @llvm.memcpy.p0.p0.i64(ptr nonnull align 1 %69, ptr nonnull align 4 %62, i64 %9, i1 false)
  %70 = load ptr, ptr %14, align 8, !tbaa !46
  %71 = getelementptr inbounds nuw i8, ptr %70, i64 721
  store i8 %63, ptr %71, align 1, !tbaa !69
  br label %74

72:                                               ; preds = %56, %51
  %.028 = phi i32 [ 50, %51 ], [ 51, %56 ]
  %73 = call i32 @ssl3_send_alert(ptr noundef nonnull %0, i32 noundef 2, i32 noundef %.028) #7
  br label %74

74:                                               ; preds = %72, %ssl3_take_mac.exit, %64, %68, %11
  %.0 = phi i32 [ %12, %11 ], [ 1, %68 ], [ 1, %64 ], [ 0, %ssl3_take_mac.exit ], [ 0, %72 ]
  call void @llvm.lifetime.end.p0(i64 4, ptr nonnull %4) #7
  ret i32 %.0
}